target datalayout = "e-m:e-p270:32:32-p271:32:32-p272:64:64-i64:64-i128:128-f80:128-n8:16:32:64-S128"
target triple = "x86_64-pc-linux-gnu"

%class.QPointF = type { double, double }
%class.QColor = type <{ i32, %"union.QColor::CT", [2 x i8] }>
%"union.QColor::CT" = type { %struct.anon }
%struct.anon = type { i16, i16, i16, i16, i16 }
%class.TFHandle = type <{ %class.Handle, i32, [4 x i8], ptr, i8, [7 x i8] }>
%class.Handle = type { %class.QGraphicsObject, %class.QColor, i32, ptr }
%class.QGraphicsObject = type { %class.QObject, %class.QGraphicsItem }
%class.QObject = type { ptr, %class.QScopedPointer }
%class.QScopedPointer = type { ptr }
%class.QGraphicsItem = type { ptr, %class.QScopedPointer.4 }
%class.QScopedPointer.4 = type { ptr }
%struct.TF_KEY = type { float, float }
%class.QRect = type { i32, i32, i32, i32 }
%class.QCursor = type { ptr }
%struct.CHART_INFO = type { ptr, float, float, float, float, i32, i32 }
%class.QWidget = type { %class.QObject, %class.QPaintDevice, ptr }
%class.QPaintDevice = type { ptr, i16, ptr }
%class.QWidgetData = type { i64, i32, %class.QFlags, i32, %class.QRect, [4 x i8], %class.QPalette, %class.QFont, %class.QRect }
%class.QFlags = type { i32 }
%class.QPalette = type <{ ptr, %union.anon, [4 x i8] }>
%union.anon = type { %"struct.QPalette::Data" }
%"struct.QPalette::Data" = type { i32 }
%class.QFont = type <{ %class.QExplicitlySharedDataPointer, i32, [4 x i8] }>
%class.QExplicitlySharedDataPointer = type { ptr }
%class.TransferFunction = type <{ [3 x %class.TfChannel], [3 x i32], [1024 x %class.QColor], [4 x i8] }>
%class.TfChannel = type { i32, %"class.std::vector" }
%"class.std::vector" = type { %"struct.std::_Vector_base" }
%"struct.std::_Vector_base" = type { %"struct.std::_Vector_base<TF_KEY *, std::allocator<TF_KEY *>>::_Vector_impl" }
%"struct.std::_Vector_base<TF_KEY *, std::allocator<TF_KEY *>>::_Vector_impl" = type { %"struct.std::_Vector_base<TF_KEY *, std::allocator<TF_KEY *>>::_Vector_impl_data" }
%"struct.std::_Vector_base<TF_KEY *, std::allocator<TF_KEY *>>::_Vector_impl_data" = type { ptr, ptr, ptr }

@_ZN8TFHandle3_tfE = global ptr null, align 8

; Function Attrs: mustprogress nounwind uwtable
define linkonce_odr noundef i32 @_ZNK5QRect6heightEv(ptr noundef nonnull align 4 dereferenceable(16) %0) #1 comdat align 2 {
  %2 = alloca ptr, align 8
  store ptr %0, ptr %2, align 8
  %3 = load ptr, ptr %2, align 8
  %4 = getelementptr inbounds %class.QRect, ptr %3, i32 0, i32 3
  %5 = load i32, ptr %4, align 4
  %6 = getelementptr inbounds %class.QRect, ptr %3, i32 0, i32 1
  %7 = load i32, ptr %6, align 4
  %8 = sub nsw i32 %5, %7
  %9 = add nsw i32 %8, 1
  ret i32 %9
}

; Function Attrs: mustprogress nounwind uwtable
define linkonce_odr noundef i32 @_ZNK5QRect5widthEv(ptr noundef nonnull align 4 dereferenceable(16) %0) #1 comdat align 2 {
  %2 = alloca ptr, align 8
  store ptr %0, ptr %2, align 8
  %3 = load ptr, ptr %2, align 8
  %4 = getelementptr inbounds %class.QRect, ptr %3, i32 0, i32 2
  %5 = load i32, ptr %4, align 4
  %6 = getelementptr inbounds %class.QRect, ptr %3, i32 0, i32 0
  %7 = load i32, ptr %6, align 4
  %8 = sub nsw i32 %5, %7
  %9 = add nsw i32 %8, 1
  ret i32 %9
}

; Function Attrs: mustprogress nounwind uwtable
define linkonce_odr noundef nonnull align 8 dereferenceable(32) ptr @_ZN16TransferFunctionixEi(ptr noundef nonnull align 8 dereferenceable(16492) %0, i32 noundef %1) #1 comdat align 2 {
  %3 = alloca ptr, align 8
  %4 = alloca i32, align 4
  store ptr %0, ptr %3, align 8
  store i32 %1, ptr %4, align 4
  %5 = load ptr, ptr %3, align 8
  %6 = getelementptr inbounds %class.TransferFunction, ptr %5, i32 0, i32 0
  %7 = getelementptr inbounds %class.TransferFunction, ptr %5, i32 0, i32 1
  %8 = load i32, ptr %4, align 4
  %9 = sext i32 %8 to i64
  %10 = getelementptr inbounds [3 x i32], ptr %7, i64 0, i64 %9
  %11 = load i32, ptr %10, align 4
  %12 = sext i32 %11 to i64
  %13 = getelementptr inbounds [3 x %class.TfChannel], ptr %6, i64 0, i64 %12
  ret ptr %13
}

; Function Attrs: mustprogress nounwind uwtable
define linkonce_odr noundef i32 @_ZN8TFHandle10getChannelEv(ptr noundef nonnull align 8 dereferenceable(81) %0) #1 comdat align 2 {
  %2 = alloca ptr, align 8
  store ptr %0, ptr %2, align 8
  %3 = load ptr, ptr %2, align 8
  %4 = getelementptr inbounds %class.TFHandle, ptr %3, i32 0, i32 1
  %5 = load i32, ptr %4, align 8
  ret i32 %5
}

; Function Attrs: mustprogress uwtable
define linkonce_odr noundef float @_ZN10CHART_INFO11chartHeightEv(ptr noundef nonnull align 8 dereferenceable(32) %0) #0 comdat align 2 {
  %2 = alloca ptr, align 8
  store ptr %0, ptr %2, align 8
  %3 = load ptr, ptr %2, align 8
  %4 = call noundef float @_ZN10CHART_INFO11lowerBorderEv(ptr noundef nonnull align 8 dereferenceable(32) %3)
  %5 = call noundef float @_ZN10CHART_INFO11upperBorderEv(ptr noundef nonnull align 8 dereferenceable(32) %3)
  %6 = fsub float %4, %5
  ret float %6
}

; Function Attrs: mustprogress uwtable
define linkonce_odr noundef float @_ZN10CHART_INFO10chartWidthEv(ptr noundef nonnull align 8 dereferenceable(32) %0) #0 comdat align 2 {
  %2 = alloca ptr, align 8
  store ptr %0, ptr %2, align 8
  %3 = load ptr, ptr %2, align 8
  %4 = call noundef float @_ZN10CHART_INFO11rightBorderEv(ptr noundef nonnull align 8 dereferenceable(32) %3)
  %5 = call noundef float @_ZN10CHART_INFO10leftBorderEv(ptr noundef nonnull align 8 dereferenceable(32) %3)
  %6 = fsub float %4, %5
  ret float %6
}

; Function Attrs: mustprogress nounwind uwtable
define linkonce_odr noundef i32 @_ZNK7QWidget6heightEv(ptr noundef nonnull align 8 dereferenceable(48) %0) #1 comdat align 2 {
  %2 = alloca ptr, align 8
  store ptr %0, ptr %2, align 8
  %3 = load ptr, ptr %2, align 8
  %4 = getelementptr inbounds %class.QWidget, ptr %3, i32 0, i32 2
  %5 = load ptr, ptr %4, align 8
  %6 = getelementptr inbounds %class.QWidgetData, ptr %5, i32 0, i32 4
  %7 = call noundef i32 @_ZNK5QRect6heightEv(ptr noundef nonnull align 4 dereferenceable(16) %6) #8
  ret i32 %7
}

; Function Attrs: mustprogress nounwind uwtable
define linkonce_odr noundef i32 @_ZNK7QWidget5widthEv(ptr noundef nonnull align 8 dereferenceable(48) %0) #1 comdat align 2 {
  %2 = alloca ptr, align 8
  store ptr %0, ptr %2, align 8
  %3 = load ptr, ptr %2, align 8
  %4 = getelementptr inbounds %class.QWidget, ptr %3, i32 0, i32 2
  %5 = load ptr, ptr %4, align 8
  %6 = getelementptr inbounds %class.QWidgetData, ptr %5, i32 0, i32 4
  %7 = call noundef i32 @_ZNK5QRect5widthEv(ptr noundef nonnull align 4 dereferenceable(16) %6) #8
  ret i32 %7
}

; Function Attrs: mustprogress uwtable
define void @_ZN8TFHandle20updateTfHandlesStateE7QPointF(ptr noundef nonnull align 8 dereferenceable(81) %0, double %1, double %2) #0 align 2 {
  %4 = alloca %class.QPointF, align 8
  %5 = alloca ptr, align 8
  %6 = getelementptr inbounds { double, double }, ptr %4, i32 0, i32 0
  store double %1, ptr %6, align 8
  %7 = getelementptr inbounds { double, double }, ptr %4, i32 0, i32 1
  store double %2, ptr %7, align 8
  store ptr %0, ptr %5, align 8
  %8 = load ptr, ptr %5, align 8
  %9 = call noundef double @_ZNK7QPointF1xEv(ptr noundef nonnull align 8 dereferenceable(16) %4)
  %10 = getelementptr inbounds %class.Handle, ptr %8, i32 0, i32 3
  %11 = load ptr, ptr %10, align 8
  %12 = call noundef float @_ZN10CHART_INFO10leftBorderEv(ptr noundef nonnull align 8 dereferenceable(32) %11)
  %13 = fpext float %12 to double
  %14 = fsub double %9, %13
  %15 = fptrunc double %14 to float
  %16 = getelementptr inbounds %class.Handle, ptr %8, i32 0, i32 3
  %17 = load ptr, ptr %16, align 8
  %18 = call noundef float @_ZN10CHART_INFO10chartWidthEv(ptr noundef nonnull align 8 dereferenceable(32) %17)
  %19 = call noundef float @_Z21absolute2RelativeValfff(float noundef %15, float noundef %18)
  %20 = getelementptr inbounds %class.TFHandle, ptr %8, i32 0, i32 3
  %21 = load ptr, ptr %20, align 8
  %22 = getelementptr inbounds %struct.TF_KEY, ptr %21, i32 0, i32 0
  store float %19, ptr %22, align 4
  %23 = call noundef double @_ZNK7QPointF1yEv(ptr noundef nonnull align 8 dereferenceable(16) %4)
  %24 = getelementptr inbounds %class.Handle, ptr %8, i32 0, i32 3
  %25 = load ptr, ptr %24, align 8
  %26 = call noundef float @_ZN10CHART_INFO11upperBorderEv(ptr noundef nonnull align 8 dereferenceable(32) %25)
  %27 = fpext float %26 to double
  %28 = fsub double %23, %27
  %29 = fptrunc double %28 to float
  %30 = getelementptr inbounds %class.Handle, ptr %8, i32 0, i32 3
  %31 = load ptr, ptr %30, align 8
  %32 = call noundef float @_ZN10CHART_INFO11chartHeightEv(ptr noundef nonnull align 8 dereferenceable(32) %31)
  %33 = call noundef float @_Z21absolute2RelativeValfff(float noundef %29, float noundef %32)
  %34 = fsub float 1.000000e+00, %33
  %35 = getelementptr inbounds %class.TFHandle, ptr %8, i32 0, i32 3
  %36 = load ptr, ptr %35, align 8
  %37 = getelementptr inbounds %struct.TF_KEY, ptr %36, i32 0, i32 1
  store float %34, ptr %37, align 4
  %38 = load ptr, ptr @_ZN8TFHandle3_tfE, align 8
  %39 = call noundef i32 @_ZN8TFHandle10getChannelEv(ptr noundef nonnull align 8 dereferenceable(81) %8)
  %40 = call noundef nonnull align 8 dereferenceable(32) ptr @_ZN16TransferFunctionixEi(ptr noundef nonnull align 8 dereferenceable(16492) %38, i32 noundef %39)
  call void @_ZN9TfChannel15updateKeysOrderEv(ptr noundef nonnull align 8 dereferenceable(32) %40)
  ret void
}

; Function Attrs: mustprogress uwtable
define linkonce_odr noundef float @_ZN10CHART_INFO11lowerBorderEv(ptr noundef nonnull align 8 dereferenceable(32) %0) #0 comdat align 2 {
  %2 = alloca ptr, align 8
  store ptr %0, ptr %2, align 8
  %3 = load ptr, ptr %2, align 8
  %4 = getelementptr inbounds %struct.CHART_INFO, ptr %3, i32 0, i32 0
  %5 = load ptr, ptr %4, align 8
  %6 = call noundef i32 @_ZNK7QWidget6heightEv(ptr noundef nonnull align 8 dereferenceable(48) %5)
  %7 = sitofp i32 %6 to float
  %8 = fsub float %7, 1.000000e+01
  ret float %8
}

; Function Attrs: mustprogress nounwind uwtable
define linkonce_odr noundef float @_ZN10CHART_INFO11upperBorderEv(ptr noundef nonnull align 8 dereferenceable(32) %0) #1 comdat align 2 {
  %2 = alloca ptr, align 8
  store ptr %0, ptr %2, align 8
  ret float 1.000000e+01
}

; Function Attrs: mustprogress uwtable
define linkonce_odr noundef float @_ZN10CHART_INFO11rightBorderEv(ptr noundef nonnull align 8 dereferenceable(32) %0) #0 comdat align 2 {
  %2 = alloca ptr, align 8
  store ptr %0, ptr %2, align 8
  %3 = load ptr, ptr %2, align 8
  %4 = getelementptr inbounds %struct.CHART_INFO, ptr %3, i32 0, i32 0
  %5 = load ptr, ptr %4, align 8
  %6 = call noundef i32 @_ZNK7QWidget5widthEv(ptr noundef nonnull align 8 dereferenceable(48) %5)
  %7 = sitofp i32 %6 to float
  %8 = fsub float %7, 1.000000e+01
  ret float %8
}

; Function Attrs: mustprogress nounwind uwtable
define linkonce_odr noundef float @_ZN10CHART_INFO10leftBorderEv(ptr noundef nonnull align 8 dereferenceable(32) %0) #1 comdat align 2 {
  %2 = alloca ptr, align 8
  store ptr %0, ptr %2, align 8
  ret float 1.000000e+01
}

; Function Attrs: mustprogress nounwind uwtable
define linkonce_odr void @_ZN7QPointF4setYEd(ptr noundef nonnull align 8 dereferenceable(16) %0, double noundef %1) #1 comdat align 2 {
  %3 = alloca ptr, align 8
  %4 = alloca double, align 8
  store ptr %0, ptr %3, align 8
  store double %1, ptr %4, align 8
  %5 = load ptr, ptr %3, align 8
  %6 = load double, ptr %4, align 8
  %7 = getelementptr inbounds %class.QPointF, ptr %5, i32 0, i32 1
  store double %6, ptr %7, align 8
  ret void
}

; Function Attrs: mustprogress nounwind uwtable
define linkonce_odr noundef double @_ZNK7QPointF1yEv(ptr noundef nonnull align 8 dereferenceable(16) %0) #1 comdat align 2 {
  %2 = alloca ptr, align 8
  store ptr %0, ptr %2, align 8
  %3 = load ptr, ptr %2, align 8
  %4 = getelementptr inbounds %class.QPointF, ptr %3, i32 0, i32 1
  %5 = load double, ptr %4, align 8
  ret double %5
}

; Function Attrs: mustprogress nounwind uwtable
define linkonce_odr void @_ZN7QPointF4setXEd(ptr noundef nonnull align 8 dereferenceable(16) %0, double noundef %1) #1 comdat align 2 {
  %3 = alloca ptr, align 8
  %4 = alloca double, align 8
  store ptr %0, ptr %3, align 8
  store double %1, ptr %4, align 8
  %5 = load ptr, ptr %3, align 8
  %6 = load double, ptr %4, align 8
  %7 = getelementptr inbounds %class.QPointF, ptr %5, i32 0, i32 0
  store double %6, ptr %7, align 8
  ret void
}

; Function Attrs: mustprogress nounwind uwtable
define linkonce_odr noundef double @_ZNK7QPointF1xEv(ptr noundef nonnull align 8 dereferenceable(16) %0) #1 comdat align 2 {
  %2 = alloca ptr, align 8
  store ptr %0, ptr %2, align 8
  %3 = load ptr, ptr %2, align 8
  %4 = getelementptr inbounds %class.QPointF, ptr %3, i32 0, i32 0
  %5 = load double, ptr %4, align 8
  ret double %5
}

; Function Attrs: mustprogress uwtable
define void @_ZN8TFHandle14mouseMoveEventEP24QGraphicsSceneMouseEvent(ptr noundef nonnull align 8 dereferenceable(81) %0, ptr noundef %1) unnamed_addr #0 align 2 personality ptr @__gxx_personality_v0 {
  %3 = alloca ptr, align 8
  %4 = alloca ptr, align 8
  %5 = alloca %class.QCursor, align 8
  %6 = alloca ptr, align 8
  %7 = alloca i32, align 4
  %8 = alloca %class.QPointF, align 8
  %9 = alloca %class.QPointF, align 8
  store ptr %0, ptr %3, align 8
  store ptr %1, ptr %4, align 8
  %10 = load ptr, ptr %3, align 8
  %11 = getelementptr inbounds i8, ptr %10, i64 16
  call void @_ZN7QCursorC1EN2Qt11CursorShapeE(ptr noundef nonnull align 8 dereferenceable(8) %5, i32 noundef 17)
  invoke void @_ZN13QGraphicsItem9setCursorERK7QCursor(ptr noundef nonnull align 8 dereferenceable(16) %11, ptr noundef nonnull align 8 dereferenceable(8) %5)
          to label %12 unwind label %66

12:                                               ; preds = %2
  call void @_ZN7QCursorD1Ev(ptr noundef nonnull align 8 dereferenceable(8) %5) #8
  %13 = load ptr, ptr %4, align 8
  %14 = call { double, double } @_ZNK24QGraphicsSceneMouseEvent8scenePosEv(ptr noundef nonnull align 8 dereferenceable(32) %13)
  %15 = getelementptr inbounds { double, double }, ptr %8, i32 0, i32 0
  %16 = extractvalue { double, double } %14, 0
  store double %16, ptr %15, align 8
  %17 = getelementptr inbounds { double, double }, ptr %8, i32 0, i32 1
  %18 = extractvalue { double, double } %14, 1
  store double %18, ptr %17, align 8
  %19 = call noundef double @_ZNK7QPointF1xEv(ptr noundef nonnull align 8 dereferenceable(16) %8)
  %20 = getelementptr inbounds %class.Handle, ptr %10, i32 0, i32 2
  %21 = load i32, ptr %20, align 8
  %22 = sitofp i32 %21 to float
  %23 = fdiv float %22, 2.000000e+00
  %24 = fpext float %23 to double
  %25 = fsub double %19, %24
  call void @_ZN7QPointF4setXEd(ptr noundef nonnull align 8 dereferenceable(16) %8, double noundef %25)
  %26 = call noundef double @_ZNK7QPointF1yEv(ptr noundef nonnull align 8 dereferenceable(16) %8)
  %27 = getelementptr inbounds %class.Handle, ptr %10, i32 0, i32 2
  %28 = load i32, ptr %27, align 8
  %29 = sitofp i32 %28 to float
  %30 = fdiv float %29, 2.000000e+00
  %31 = fpext float %30 to double
  %32 = fsub double %26, %31
  call void @_ZN7QPointF4setYEd(ptr noundef nonnull align 8 dereferenceable(16) %8, double noundef %32)
  %33 = call noundef double @_ZNK7QPointF1xEv(ptr noundef nonnull align 8 dereferenceable(16) %8)
  %34 = getelementptr inbounds %class.Handle, ptr %10, i32 0, i32 3
  %35 = load ptr, ptr %34, align 8
  %36 = call noundef float @_ZN10CHART_INFO10leftBorderEv(ptr noundef nonnull align 8 dereferenceable(32) %35)
  %37 = fpext float %36 to double
  %38 = fcmp oge double %33, %37
  br i1 %38, label %39, label %70

39:                                               ; preds = %12
  %40 = call noundef double @_ZNK7QPointF1xEv(ptr noundef nonnull align 8 dereferenceable(16) %8)
  %41 = getelementptr inbounds %class.Handle, ptr %10, i32 0, i32 3
  %42 = load ptr, ptr %41, align 8
  %43 = call noundef float @_ZN10CHART_INFO11rightBorderEv(ptr noundef nonnull align 8 dereferenceable(32) %42)
  %44 = fpext float %43 to double
  %45 = fcmp ole double %40, %44
  br i1 %45, label %46, label %70

46:                                               ; preds = %39
  %47 = call noundef double @_ZNK7QPointF1yEv(ptr noundef nonnull align 8 dereferenceable(16) %8)
  %48 = getelementptr inbounds %class.Handle, ptr %10, i32 0, i32 3
  %49 = load ptr, ptr %48, align 8
  %50 = call noundef float @_ZN10CHART_INFO11upperBorderEv(ptr noundef nonnull align 8 dereferenceable(32) %49)
  %51 = fpext float %50 to double
  %52 = fcmp oge double %47, %51
  br i1 %52, label %53, label %70

53:                                               ; preds = %46
  %54 = call noundef double @_ZNK7QPointF1yEv(ptr noundef nonnull align 8 dereferenceable(16) %8)
  %55 = getelementptr inbounds %class.Handle, ptr %10, i32 0, i32 3
  %56 = load ptr, ptr %55, align 8
  %57 = call noundef float @_ZN10CHART_INFO11lowerBorderEv(ptr noundef nonnull align 8 dereferenceable(32) %56)
  %58 = fpext float %57 to double
  %59 = fcmp ole double %54, %58
  br i1 %59, label %60, label %70

60:                                               ; preds = %53
  %61 = getelementptr inbounds i8, ptr %10, i64 16
  call void @_ZN13QGraphicsItem6setPosERK7QPointF(ptr noundef nonnull align 8 dereferenceable(16) %61, ptr noundef nonnull align 8 dereferenceable(16) %8)
  call void @llvm.memcpy.p0.p0.i64(ptr align 8 %9, ptr align 8 %8, i64 16, i1 false)
  %62 = getelementptr inbounds { double, double }, ptr %9, i32 0, i32 0
  %63 = load double, ptr %62, align 8
  %64 = getelementptr inbounds { double, double }, ptr %9, i32 0, i32 1
  %65 = load double, ptr %64, align 8
  call void @_ZN8TFHandle20updateTfHandlesStateE7QPointF(ptr noundef nonnull align 8 dereferenceable(81) %10, double %63, double %65)
  call void @_ZN8TFHandle15positionChangedEPS_(ptr noundef nonnull align 8 dereferenceable(81) %10, ptr noundef %10)
  br label %70

66:                                               ; preds = %2
  %67 = landingpad { ptr, i32 }
          cleanup
  %68 = extractvalue { ptr, i32 } %67, 0
  store ptr %68, ptr %6, align 8
  %69 = extractvalue { ptr, i32 } %67, 1
  store i32 %69, ptr %7, align 4
  call void @_ZN7QCursorD1Ev(ptr noundef nonnull align 8 dereferenceable(8) %5) #8
  br label %71

70:                                               ; preds = %60, %53, %46, %39, %12
  ret void

71:                                               ; preds = %66
  %72 = load ptr, ptr %6, align 8
  %73 = load i32, ptr %7, align 4
  %74 = insertvalue { ptr, i32 } poison, ptr %72, 0
  %75 = insertvalue { ptr, i32 } %74, i32 %73, 1
  resume { ptr, i32 } %75
}