; Function Attrs: mustprogress uwtable
define void @_ZN8TFHandle14mouseMoveEventEP24QGraphicsSceneMouseEvent(ptr noundef nonnull align 8 dereferenceable(81) %0, ptr noundef %1) unnamed_addr #0 align 2 personality ptr @__gxx_personality_v0 {
  %3 = alloca %class.QCursor, align 8
  %4 = alloca %class.QPointF, align 8
  %5 = getelementptr inbounds i8, ptr %0, i64 16
  call void @_ZN7QCursorC1EN2Qt11CursorShapeE(ptr noundef nonnull align 8 dereferenceable(8) %3, i32 noundef 17)
  invoke void @_ZN13QGraphicsItem9setCursorERK7QCursor(ptr noundef nonnull align 8 dereferenceable(16) %5, ptr noundef nonnull align 8 dereferenceable(8) %3)
          to label %6 unwind label %94

6:                                                ; preds = %2
  call void @_ZN7QCursorD1Ev(ptr noundef nonnull align 8 dereferenceable(8) %3) #12
  %7 = call { double, double } @_ZNK24QGraphicsSceneMouseEvent8scenePosEv(ptr noundef nonnull align 8 dereferenceable(32) %1)
  %8 = extractvalue { double, double } %7, 0
  %9 = getelementptr inbounds i8, ptr %4, i64 8
  %10 = extractvalue { double, double } %7, 1
  %11 = getelementptr inbounds i8, ptr %0, i64 48
  %12 = load i32, ptr %11, align 8
  %13 = sitofp i32 %12 to float
  %14 = fmul float %13, 5.000000e-01
  %15 = fpext float %14 to double
  %16 = fsub double %8, %15
  store double %16, ptr %4, align 8
  %17 = fsub double %10, %15
  store double %17, ptr %9, align 8
  %18 = getelementptr inbounds i8, ptr %0, i64 56
  %19 = fcmp ult double %16, 1.000000e+01
  br i1 %19, label %96, label %20

20:                                               ; preds = %6
  %21 = load ptr, ptr %18, align 8
  %22 = load ptr, ptr %21, align 8
  %23 = getelementptr inbounds i8, ptr %22, i64 40
  %24 = load ptr, ptr %23, align 8
  %25 = getelementptr inbounds i8, ptr %24, i64 20
  %26 = getelementptr inbounds i8, ptr %24, i64 28
  %27 = load i32, ptr %26, align 4
  %28 = load i32, ptr %25, align 4
  %29 = add i32 %27, 1
  %30 = sub i32 %29, %28
  %31 = sitofp i32 %30 to float
  %32 = fadd float %31, -1.000000e+01
  %33 = fpext float %32 to double
  %34 = fcmp ugt double %16, %33
  %35 = fcmp ult double %17, 1.000000e+01
  %or.cond = select i1 %34, i1 true, i1 %35
  br i1 %or.cond, label %96, label %36

36:                                               ; preds = %20
  %37 = getelementptr inbounds i8, ptr %24, i64 32
  %38 = load i32, ptr %37, align 4
  %39 = getelementptr inbounds i8, ptr %24, i64 24
  %40 = load i32, ptr %39, align 4
  %41 = add i32 %38, 1
  %42 = sub i32 %41, %40
  %43 = sitofp i32 %42 to float
  %44 = fadd float %43, -1.000000e+01
  %45 = fpext float %44 to double
  %46 = fcmp ugt double %17, %45
  br i1 %46, label %96, label %47

47:                                               ; preds = %36
  call void @_ZN13QGraphicsItem6setPosERK7QPointF(ptr noundef nonnull align 8 dereferenceable(16) %5, ptr noundef nonnull align 8 dereferenceable(16) %4)
  %.sroa.0.0.copyload = load double, ptr %4, align 8
  %.sroa.2.0.copyload = load double, ptr %9, align 8
  %48 = fadd double %.sroa.0.0.copyload, -1.000000e+01
  %49 = fptrunc double %48 to float
  %50 = load ptr, ptr %18, align 8
  %51 = load ptr, ptr %50, align 8
  %52 = getelementptr inbounds i8, ptr %51, i64 40
  %53 = load ptr, ptr %52, align 8
  %54 = getelementptr inbounds i8, ptr %53, i64 20
  %55 = getelementptr inbounds i8, ptr %53, i64 28
  %56 = load i32, ptr %55, align 4
  %57 = load i32, ptr %54, align 4
  %58 = add i32 %56, 1
  %59 = sub i32 %58, %57
  %60 = sitofp i32 %59 to float
  %61 = fadd float %60, -1.000000e+01
  %62 = fadd float %61, -1.000000e+01
  %63 = call noundef float @_Z21absolute2RelativeValfff(float noundef %49, float noundef %62)
  %64 = getelementptr inbounds i8, ptr %0, i64 72
  %65 = load ptr, ptr %64, align 8
  store float %63, ptr %65, align 4
  %66 = fadd double %.sroa.2.0.copyload, -1.000000e+01
  %67 = fptrunc double %66 to float
  %68 = load ptr, ptr %18, align 8
  %69 = load ptr, ptr %68, align 8
  %70 = getelementptr inbounds i8, ptr %69, i64 40
  %71 = load ptr, ptr %70, align 8
  %72 = getelementptr inbounds i8, ptr %71, i64 32
  %73 = load i32, ptr %72, align 4
  %74 = getelementptr inbounds i8, ptr %71, i64 24
  %75 = load i32, ptr %74, align 4
  %76 = add i32 %73, 1
  %77 = sub i32 %76, %75
  %78 = sitofp i32 %77 to float
  %79 = fadd float %78, -1.000000e+01
  %80 = fadd float %79, -1.000000e+01
  %81 = call noundef float @_Z21absolute2RelativeValfff(float noundef %67, float noundef %80)
  %82 = fsub float 1.000000e+00, %81
  %83 = load ptr, ptr %64, align 8
  %84 = getelementptr inbounds i8, ptr %83, i64 4
  store float %82, ptr %84, align 4
  %85 = load ptr, ptr @_ZN8TFHandle3_tfE, align 8
  %86 = getelementptr inbounds i8, ptr %0, i64 64
  %87 = load i32, ptr %86, align 8
  %88 = getelementptr inbounds i8, ptr %85, i64 96
  %89 = sext i32 %87 to i64
  %90 = getelementptr inbounds [3 x i32], ptr %88, i64 0, i64 %89
  %91 = load i32, ptr %90, align 4
  %92 = sext i32 %91 to i64
  %93 = getelementptr inbounds [3 x %class.TfChannel], ptr %85, i64 0, i64 %92
  call void @_ZN9TfChannel15updateKeysOrderEv(ptr noundef nonnull align 8 dereferenceable(32) %93)
  call void @_ZN8TFHandle15positionChangedEPS_(ptr noundef nonnull align 8 dereferenceable(81) %0, ptr noundef nonnull %0)
  br label %96

94:                                               ; preds = %2
  %95 = landingpad { ptr, i32 }
          cleanup
  call void @_ZN7QCursorD1Ev(ptr noundef nonnull align 8 dereferenceable(8) %3) #12
  resume { ptr, i32 } %95

96:                                               ; preds = %47, %36, %20, %6
  ret void
}